; Function Attrs: mustprogress nofree norecurse nosync nounwind memory(readwrite, inaccessiblemem: none) uwtable
define hidden noundef zeroext i1 @_ZN3sat10simplifier9subsumes0ERKNS_6clauseES3_(ptr nocapture noundef nonnull readonly align 8 dereferenceable(288) %this, ptr noundef nonnull readonly align 4 dereferenceable(20) %c1, ptr noundef nonnull readonly align 4 dereferenceable(20) %c2) local_unnamed_addr #5 align 2 {
entry:
  %m_lits.i.ptr.ptr = getelementptr inbounds i8, ptr %c2, i64 20
  %m_size.i = getelementptr inbounds i8, ptr %c2, i64 4
  %0 = load i32, ptr %m_size.i, align 4
  %idx.ext.i = zext i32 %0 to i64
  %add.ptr.i.idx = shl nuw nsw i64 %idx.ext.i, 2
  %1 = getelementptr i8, ptr %c2, i64 %add.ptr.i.idx
  %add.ptr.i.ptr = getelementptr i8, ptr %1, i64 20
  %cmp.not28 = icmp eq i32 %0, 0
  br i1 %cmp.not28, label %for.end, label %for.body.lr.ph

for.body.lr.ph:                                   ; preds = %entry
  %m_visited.i = getelementptr inbounds i8, ptr %this, i64 96
  br label %for.body

for.body:                                         ; preds = %for.body.lr.ph, %for.body
  %__begin1.029 = phi ptr [ %m_lits.i.ptr.ptr, %for.body.lr.ph ], [ %incdec.ptr, %for.body ]
  %l.sroa.0.0.copyload = load i32, ptr %__begin1.029, align 4
  %2 = load ptr, ptr %m_visited.i, align 8
  %idxprom.i.i = zext i32 %l.sroa.0.0.copyload to i64
  %arrayidx.i.i = getelementptr inbounds i8, ptr %2, i64 %idxprom.i.i
  store i8 1, ptr %arrayidx.i.i, align 1
  %incdec.ptr = getelementptr inbounds i8, ptr %__begin1.029, i64 4
  %cmp.not = icmp eq ptr %incdec.ptr, %add.ptr.i.ptr
  br i1 %cmp.not, label %for.end, label %for.body

for.end:                                          ; preds = %for.body, %entry
  %m_size.i14 = getelementptr inbounds i8, ptr %c1, i64 4
  %3 = load i32, ptr %m_size.i14, align 4
  %idx.ext.i15 = zext i32 %3 to i64
  %add.ptr.i16.idx = shl nuw nsw i64 %idx.ext.i15, 2
  %4 = getelementptr i8, ptr %c1, i64 %add.ptr.i16.idx
  %add.ptr.i16.ptr = getelementptr i8, ptr %4, i64 20
  %cmp9.not30 = icmp eq i32 %3, 0
  br i1 %cmp9.not30, label %for.end17, label %for.body10.lr.ph

for.body10.lr.ph:                                 ; preds = %for.end
  %m_lits.i12.ptr = getelementptr inbounds i8, ptr %c1, i64 20
  %m_visited.i17 = getelementptr inbounds i8, ptr %this, i64 96
  %5 = load ptr, ptr %m_visited.i17, align 8
  br label %for.body10

for.body10:                                       ; preds = %for.body10, %for.body10.lr.ph
  %__begin14.031 = phi ptr [ %m_lits.i12.ptr, %for.body10.lr.ph ], [ %incdec.ptr16, %for.body10 ]
  %l11.sroa.0.0.copyload = load i32, ptr %__begin14.031, align 4
  %idxprom.i.i18 = zext i32 %l11.sroa.0.0.copyload to i64
  %arrayidx.i.i19 = getelementptr inbounds i8, ptr %5, i64 %idxprom.i.i18
  %6 = load i8, ptr %arrayidx.i.i19, align 1
  %cmp.i.not.not = icmp ne i8 %6, 0
  %incdec.ptr16 = getelementptr inbounds i8, ptr %__begin14.031, i64 4
  %cmp9.not = icmp ne ptr %incdec.ptr16, %add.ptr.i16.ptr
  %or.cond.not = select i1 %cmp.i.not.not, i1 %cmp9.not, i1 false
  br i1 %or.cond.not, label %for.body10, label %for.end17

for.end17:                                        ; preds = %for.body10, %for.end
  %cmp9.not.lcssa = phi i1 [ true, %for.end ], [ %cmp.i.not.not, %for.body10 ]
  %7 = load i32, ptr %m_size.i, align 4
  %idx.ext.i23 = zext i32 %7 to i64
  %add.ptr.i24.idx = shl nuw nsw i64 %idx.ext.i23, 2
  %8 = getelementptr i8, ptr %c2, i64 %add.ptr.i24.idx
  %add.ptr.i24.ptr = getelementptr i8, ptr %8, i64 20
  %cmp24.not34 = icmp eq i32 %7, 0
  br i1 %cmp24.not34, label %for.end31, label %for.body25.lr.ph

for.body25.lr.ph:                                 ; preds = %for.end17
  %m_visited.i25 = getelementptr inbounds i8, ptr %this, i64 96
  br label %for.body25

for.body25:                                       ; preds = %for.body25.lr.ph, %for.body25
  %__begin119.035 = phi ptr [ %m_lits.i.ptr.ptr, %for.body25.lr.ph ], [ %incdec.ptr30, %for.body25 ]
  %l26.sroa.0.0.copyload = load i32, ptr %__begin119.035, align 4
  %9 = load ptr, ptr %m_visited.i25, align 8
  %idxprom.i.i26 = zext i32 %l26.sroa.0.0.copyload to i64
  %arrayidx.i.i27 = getelementptr inbounds i8, ptr %9, i64 %idxprom.i.i26
  store i8 0, ptr %arrayidx.i.i27, align 1
  %incdec.ptr30 = getelementptr inbounds i8, ptr %__begin119.035, i64 4
  %cmp24.not = icmp eq ptr %incdec.ptr30, %add.ptr.i24.ptr
  br i1 %cmp24.not, label %for.end31, label %for.body25

for.end31:                                        ; preds = %for.body25, %for.end17
  ret i1 %cmp9.not.lcssa
}